target datalayout = "e-m:e-p270:32:32-p271:32:32-p272:64:64-i64:64-i128:128-f80:128-n8:16:32:64-S128"
target triple = "x86_64-pc-linux-gnu"

%struct.pref_module = type { ptr, ptr, ptr, ptr, ptr, ptr, ptr, ptr, i32, i32, i8, i8, i32 }

@prefs_top_level_modules = internal global ptr null, align 8
@.str = private unnamed_addr constant [5 x i8] c"Epan\00", align 1
@.str.1 = private unnamed_addr constant [13 x i8] c"epan/prefs.c\00", align 1
@protocols_module = global ptr null, align 8
@__func__.prefs_register_protocol_subtree = private unnamed_addr constant [32 x i8] c"prefs_register_protocol_subtree\00", align 1
@.str.6 = private unnamed_addr constant [62 x i8] c"Protocol subtree being registered with an invalid protocol ID\00", align 1

; Function Attrs: null_pointer_is_valid sspstrong uwtable
define internal ptr @prefs_register_module(ptr noundef %0, ptr noundef %1, ptr noundef %2, ptr noundef %3, ptr noundef %4, ptr noundef %5, i1 noundef zeroext %6) #1 {
  %8 = alloca ptr, align 8
  %9 = alloca ptr, align 8
  %10 = alloca ptr, align 8
  %11 = alloca ptr, align 8
  %12 = alloca ptr, align 8
  %13 = alloca ptr, align 8
  %14 = alloca i8, align 1
  store ptr %0, ptr %8, align 8
  store ptr %1, ptr %9, align 8
  store ptr %2, ptr %10, align 8
  store ptr %3, ptr %11, align 8
  store ptr %4, ptr %12, align 8
  store ptr %5, ptr %13, align 8
  %15 = zext i1 %6 to i8
  store i8 %15, ptr %14, align 1
  %16 = load ptr, ptr %8, align 8
  %17 = load ptr, ptr %9, align 8
  %18 = load ptr, ptr %10, align 8
  %19 = load ptr, ptr %11, align 8
  %20 = load ptr, ptr %12, align 8
  %21 = load ptr, ptr %13, align 8
  %22 = load i8, ptr %14, align 1, !range !6, !noundef !7
  %23 = trunc i8 %22 to i1
  %24 = call ptr @prefs_register_module_or_subtree(ptr noundef %16, ptr noundef %17, ptr noundef %18, ptr noundef %19, ptr noundef %20, i1 noundef zeroext false, ptr noundef %21, i1 noundef zeroext %23)
  ret ptr %24
}

; Function Attrs: null_pointer_is_valid sspstrong uwtable
define internal ptr @prefs_register_subtree(ptr noundef %0, ptr noundef %1, ptr noundef %2, ptr noundef %3) #1 {
  %5 = alloca ptr, align 8
  %6 = alloca ptr, align 8
  %7 = alloca ptr, align 8
  %8 = alloca ptr, align 8
  store ptr %0, ptr %5, align 8
  store ptr %1, ptr %6, align 8
  store ptr %2, ptr %7, align 8
  store ptr %3, ptr %8, align 8
  %9 = load ptr, ptr %5, align 8
  %10 = load ptr, ptr %6, align 8
  %11 = load ptr, ptr %7, align 8
  %12 = load ptr, ptr %8, align 8
  %13 = load ptr, ptr %5, align 8
  %14 = icmp ne ptr %13, null
  br i1 %14, label %15, label %21

15:                                               ; preds = %4
  %16 = load ptr, ptr %5, align 8
  %17 = getelementptr inbounds nuw %struct.pref_module, ptr %16, i32 0, i32 11
  %18 = load i8, ptr %17, align 1, !range !6, !noundef !7
  %19 = trunc i8 %18 to i1
  %20 = zext i1 %19 to i32
  br label %22

21:                                               ; preds = %4
  br label %22

22:                                               ; preds = %21, %15
  %23 = phi i32 [ %20, %15 ], [ 0, %21 ]
  %24 = icmp ne i32 %23, 0
  %25 = call ptr @prefs_register_module_or_subtree(ptr noundef %9, ptr noundef null, ptr noundef %10, ptr noundef %11, ptr noundef null, i1 noundef zeroext true, ptr noundef %12, i1 noundef zeroext %24)
  ret ptr %25
}

; Function Attrs: null_pointer_is_valid sspstrong uwtable
define internal ptr @find_subtree(ptr noundef %0, ptr noundef %1) #1 {
  %3 = alloca ptr, align 8
  %4 = alloca ptr, align 8
  store ptr %0, ptr %3, align 8
  store ptr %1, ptr %4, align 8
  %5 = load ptr, ptr %3, align 8
  %6 = icmp ne ptr %5, null
  br i1 %6, label %7, label %11

7:                                                ; preds = %2
  %8 = load ptr, ptr %3, align 8
  %9 = getelementptr inbounds nuw %struct.pref_module, ptr %8, i32 0, i32 7
  %10 = load ptr, ptr %9, align 8
  br label %13

11:                                               ; preds = %2
  %12 = load ptr, ptr @prefs_top_level_modules, align 8
  br label %13

13:                                               ; preds = %11, %7
  %14 = phi ptr [ %10, %7 ], [ %12, %11 ]
  %15 = load ptr, ptr %4, align 8
  %16 = call ptr @wmem_tree_lookup_string(ptr noundef %14, ptr noundef %15, i32 noundef 1)
  ret ptr %16
}

; Function Attrs: null_pointer_is_valid sspstrong uwtable
define ptr @prefs_register_protocol_subtree(ptr noundef %0, i32 noundef %1, ptr noundef %2) #1 {
  %4 = alloca ptr, align 8
  %5 = alloca i32, align 4
  %6 = alloca ptr, align 8
  %7 = alloca ptr, align 8
  %8 = alloca ptr, align 8
  %9 = alloca ptr, align 8
  %10 = alloca ptr, align 8
  %11 = alloca ptr, align 8
  %12 = alloca ptr, align 8
  store ptr %0, ptr %4, align 8
  store i32 %1, ptr %5, align 4
  store ptr %2, ptr %6, align 8
  call void @llvm.lifetime.start.p0(i64 8, ptr %7) #17
  call void @llvm.lifetime.start.p0(i64 8, ptr %8) #17
  call void @llvm.lifetime.start.p0(i64 8, ptr %9) #17
  call void @llvm.lifetime.start.p0(i64 8, ptr %10) #17
  store ptr null, ptr %10, align 8
  call void @llvm.lifetime.start.p0(i64 8, ptr %11) #17
  store ptr null, ptr %11, align 8
  call void @llvm.lifetime.start.p0(i64 8, ptr %12) #17
  store ptr null, ptr %12, align 8
  %13 = load ptr, ptr @protocols_module, align 8
  %14 = icmp eq ptr %13, null
  br i1 %14, label %15, label %16

15:                                               ; preds = %3
  call void @pre_init_prefs()
  call void @prefs_register_modules()
  br label %16

16:                                               ; preds = %15, %3
  %17 = load ptr, ptr @protocols_module, align 8
  store ptr %17, ptr %8, align 8
  %18 = load ptr, ptr %4, align 8
  %19 = icmp ne ptr %18, null
  br i1 %19, label %20, label %58

20:                                               ; preds = %16
  %21 = load ptr, ptr %4, align 8
  %22 = call noalias ptr @g_strdup(ptr noundef %21)
  store ptr %22, ptr %11, align 8
  store ptr %22, ptr %12, align 8
  br label %23

23:                                               ; preds = %53, %20
  %24 = load ptr, ptr %11, align 8
  %25 = icmp ne ptr %24, null
  br i1 %25, label %26, label %31

26:                                               ; preds = %23
  %27 = load ptr, ptr %11, align 8
  %28 = load i8, ptr %27, align 1
  %29 = sext i8 %28 to i32
  %30 = icmp ne i32 %29, 0
  br label %31

31:                                               ; preds = %26, %23
  %32 = phi i1 [ false, %23 ], [ %30, %26 ]
  br i1 %32, label %33, label %56

33:                                               ; preds = %31
  %34 = load ptr, ptr %11, align 8
  %35 = call ptr @strchr(ptr noundef %34, i32 noundef 47) #22
  store ptr %35, ptr %10, align 8
  %36 = icmp ne ptr %35, null
  br i1 %36, label %37, label %40

37:                                               ; preds = %33
  %38 = load ptr, ptr %10, align 8
  %39 = getelementptr i8, ptr %38, i32 1
  store ptr %39, ptr %10, align 8
  store i8 0, ptr %38, align 1
  br label %40

40:                                               ; preds = %37, %33
  %41 = load ptr, ptr %8, align 8
  %42 = load ptr, ptr %11, align 8
  %43 = call ptr @find_subtree(ptr noundef %41, ptr noundef %42)
  store ptr %43, ptr %9, align 8
  %44 = icmp ne ptr %43, null
  br i1 %44, label %53, label %45

45:                                               ; preds = %40
  %46 = call ptr @wmem_epan_scope()
  %47 = load ptr, ptr %11, align 8
  %48 = call noalias ptr @wmem_strdup(ptr noundef %46, ptr noundef %47)
  store ptr %48, ptr %11, align 8
  %49 = load ptr, ptr %8, align 8
  %50 = load ptr, ptr %11, align 8
  %51 = load ptr, ptr %11, align 8
  %52 = call ptr @prefs_register_subtree(ptr noundef %49, ptr noundef %50, ptr noundef %51, ptr noundef null)
  store ptr %52, ptr %9, align 8
  br label %53

53:                                               ; preds = %45, %40
  %54 = load ptr, ptr %9, align 8
  store ptr %54, ptr %8, align 8
  %55 = load ptr, ptr %10, align 8
  store ptr %55, ptr %11, align 8
  br label %23, !llvm.loop !11

56:                                               ; preds = %31
  %57 = load ptr, ptr %12, align 8
  call void @g_free(ptr noundef %57)
  br label %58

58:                                               ; preds = %56, %16
  %59 = load i32, ptr %5, align 4
  %60 = call ptr @find_protocol_by_id(i32 noundef %59)
  store ptr %60, ptr %7, align 8
  %61 = load ptr, ptr %7, align 8
  %62 = icmp eq ptr %61, null
  br i1 %62, label %63, label %64

63:                                               ; preds = %58
  call void (ptr, i32, ptr, i64, ptr, ptr, ...) @ws_log_fatal_full(ptr noundef @.str, i32 noundef 7, ptr noundef @.str.1, i64 noundef 723, ptr noundef @__func__.prefs_register_protocol_subtree, ptr noundef @.str.6) #18
  unreachable

64:                                               ; preds = %58
  %65 = load ptr, ptr %8, align 8
  %66 = load i32, ptr %5, align 4
  %67 = call ptr @proto_get_protocol_filter_name(i32 noundef %66)
  %68 = load ptr, ptr %7, align 8
  %69 = call ptr @proto_get_protocol_short_name(ptr noundef %68)
  %70 = load i32, ptr %5, align 4
  %71 = call ptr @proto_get_protocol_name(i32 noundef %70)
  %72 = load ptr, ptr %6, align 8
  %73 = call ptr @prefs_register_module(ptr noundef %65, ptr noundef %67, ptr noundef %69, ptr noundef %71, ptr noundef null, ptr noundef %72, i1 noundef zeroext true)
  call void @llvm.lifetime.end.p0(i64 8, ptr %12) #17
  call void @llvm.lifetime.end.p0(i64 8, ptr %11) #17
  call void @llvm.lifetime.end.p0(i64 8, ptr %10) #17
  call void @llvm.lifetime.end.p0(i64 8, ptr %9) #17
  call void @llvm.lifetime.end.p0(i64 8, ptr %8) #17
  call void @llvm.lifetime.end.p0(i64 8, ptr %7) #17
  ret ptr %73
}