; Function Attrs: null_pointer_is_valid sspstrong uwtable
define ptr @prefs_register_protocol_subtree(ptr noundef %0, i32 noundef %1, ptr noundef %2) local_unnamed_addr #1 {
  %4 = load ptr, ptr @protocols_module, align 8
  %5 = icmp eq ptr %4, null
  br i1 %5, label %6, label %7

6:                                                ; preds = %3
  tail call fastcc void @pre_init_prefs()
  tail call fastcc void @prefs_register_modules()
  %.pre = load ptr, ptr @protocols_module, align 8
  br label %7

7:                                                ; preds = %6, %3
  %8 = phi ptr [ %.pre, %6 ], [ %4, %3 ]
  %.not = icmp eq ptr %0, null
  br i1 %.not, label %28, label %9

9:                                                ; preds = %7
  %10 = tail call noalias ptr @g_strdup(ptr noundef nonnull %0)
  %.not2934 = icmp eq ptr %10, null
  br i1 %.not2934, label %.critedge, label %.lr.ph

.lr.ph:                                           ; preds = %9, %prefs_register_subtree.exit
  %.036 = phi ptr [ %.021, %prefs_register_subtree.exit ], [ %10, %9 ]
  %.135 = phi ptr [ %.022, %prefs_register_subtree.exit ], [ %8, %9 ]
  %11 = load i8, ptr %.036, align 1
  %.not30 = icmp eq i8 %11, 0
  br i1 %.not30, label %.critedge, label %12

12:                                               ; preds = %.lr.ph
  %13 = tail call ptr @strchr(ptr noundef nonnull dereferenceable(1) %.036, i32 noundef 47) #29
  %.not31 = icmp eq ptr %13, null
  br i1 %.not31, label %16, label %14

14:                                               ; preds = %12
  %15 = getelementptr i8, ptr %13, i64 1
  store i8 0, ptr %13, align 1
  br label %16

16:                                               ; preds = %14, %12
  %.021 = phi ptr [ %15, %14 ], [ null, %12 ]
  %.not.i = icmp eq ptr %.135, null
  %17 = getelementptr inbounds nuw i8, ptr %.135, i64 56
  %.in.i = select i1 %.not.i, ptr @prefs_top_level_modules, ptr %17
  %18 = load ptr, ptr %.in.i, align 8
  %19 = tail call ptr @wmem_tree_lookup_string(ptr noundef %18, ptr noundef nonnull %.036, i32 noundef 1)
  %.not32 = icmp eq ptr %19, null
  br i1 %.not32, label %20, label %prefs_register_subtree.exit

20:                                               ; preds = %16
  %21 = tail call ptr @wmem_epan_scope()
  %22 = tail call noalias ptr @wmem_strdup(ptr noundef %21, ptr noundef nonnull %.036)
  br i1 %.not.i, label %.split6.i, label %.split.i

.split6.i:                                        ; preds = %20
  %23 = tail call fastcc ptr @prefs_register_module_or_subtree(ptr noundef null, ptr noundef null, ptr noundef %22, ptr noundef %22, ptr noundef null, i1 noundef zeroext true, ptr noundef null, i1 noundef zeroext false)
  br label %prefs_register_subtree.exit

.split.i:                                         ; preds = %20
  %24 = getelementptr inbounds nuw i8, ptr %.135, i64 73
  %25 = load i8, ptr %24, align 1, !range !6, !noundef !7
  %26 = icmp ne i8 %25, 0
  %27 = tail call fastcc ptr @prefs_register_module_or_subtree(ptr noundef nonnull %.135, ptr noundef null, ptr noundef %22, ptr noundef %22, ptr noundef null, i1 noundef zeroext true, ptr noundef null, i1 noundef zeroext %26)
  br label %prefs_register_subtree.exit

prefs_register_subtree.exit:                      ; preds = %.split.i, %.split6.i, %16
  %.022 = phi ptr [ %19, %16 ], [ %27, %.split.i ], [ %23, %.split6.i ]
  %.not29 = icmp eq ptr %.021, null
  br i1 %.not29, label %.critedge, label %.lr.ph, !llvm.loop !16

.critedge:                                        ; preds = %.lr.ph, %prefs_register_subtree.exit, %9
  %.1.lcssa = phi ptr [ %8, %9 ], [ %.022, %prefs_register_subtree.exit ], [ %.135, %.lr.ph ]
  tail call void @g_free(ptr noundef %10)
  br label %28

28:                                               ; preds = %.critedge, %7
  %.023 = phi ptr [ %.1.lcssa, %.critedge ], [ %8, %7 ]
  %29 = tail call ptr @find_protocol_by_id(i32 noundef %1)
  %30 = icmp eq ptr %29, null
  br i1 %30, label %31, label %32

31:                                               ; preds = %28
  tail call void (ptr, i32, ptr, i64, ptr, ptr, ...) @ws_log_fatal_full(ptr noundef nonnull @.str, i32 noundef 7, ptr noundef nonnull @.str.1, i64 noundef 723, ptr noundef nonnull @__func__.prefs_register_protocol_subtree, ptr noundef nonnull @.str.6) #26
  unreachable

32:                                               ; preds = %28
  %33 = tail call ptr @proto_get_protocol_filter_name(i32 noundef %1)
  %34 = tail call ptr @proto_get_protocol_short_name(ptr noundef nonnull %29)
  %35 = tail call ptr @proto_get_protocol_name(i32 noundef %1)
  %36 = tail call fastcc ptr @prefs_register_module_or_subtree(ptr noundef %.023, ptr noundef %33, ptr noundef %34, ptr noundef %35, ptr noundef null, i1 noundef zeroext false, ptr noundef %2, i1 noundef zeroext true)
  ret ptr %36
}